; Function Attrs: mustprogress uwtable
define dso_local noundef ptr @_ZN4absl12log_internal20CheckstrcmpfalseImplEPKcS2_S2_(ptr noundef %0, ptr noundef %1, ptr noundef %2) local_unnamed_addr #2 personality ptr @__gxx_personality_v0 {
  %4 = alloca [6 x %"class.std::basic_string_view"], align 8
  %5 = icmp eq ptr %0, %1
  br i1 %5, label %.critedge, label %6

6:                                                ; preds = %3
  %7 = icmp ne ptr %0, null
  %8 = icmp ne ptr %1, null
  %or.cond = and i1 %7, %8
  br i1 %or.cond, label %9, label %.critedge30

9:                                                ; preds = %6
  %10 = tail call i32 @strcmp(ptr noundef nonnull dereferenceable(1) %0, ptr noundef nonnull dereferenceable(1) %1) #16
  %.not.not = icmp eq i32 %10, 0
  br i1 %.not.not, label %.critedge, label %.critedge30

.critedge:                                        ; preds = %3, %9
  %11 = tail call noalias noundef nonnull dereferenceable(32) ptr @_Znwm(i64 noundef 32) #15
  %.not.i.i = icmp eq ptr %2, null
  br i1 %.not.i.i, label %14, label %12

12:                                               ; preds = %.critedge
  %13 = tail call noundef i64 @strlen(ptr noundef nonnull dereferenceable(1) %2) #13
  br label %14

14:                                               ; preds = %.critedge, %12
  %.sroa.0.0.i.i = phi i64 [ %13, %12 ], [ 0, %.critedge ]
  %.not.i.i32 = icmp eq ptr %0, null
  br i1 %.not.i.i32, label %17, label %15

15:                                               ; preds = %14
  %16 = tail call noundef i64 @strlen(ptr noundef nonnull dereferenceable(1) %0) #13
  br label %17

17:                                               ; preds = %14, %15
  %.sroa.0.0.i.i33 = phi i64 [ %16, %15 ], [ 0, %14 ]
  %.not.i.i36 = icmp eq ptr %1, null
  br i1 %.not.i.i36, label %_ZN4absl8AlphaNumC2EPKc.exit38, label %18

18:                                               ; preds = %17
  %19 = tail call noundef i64 @strlen(ptr noundef nonnull dereferenceable(1) %1) #13
  br label %_ZN4absl8AlphaNumC2EPKc.exit38

_ZN4absl8AlphaNumC2EPKc.exit38:                   ; preds = %18, %17
  %.sroa.0.0.i.i37 = phi i64 [ %19, %18 ], [ 0, %17 ]
  call void @llvm.lifetime.start.p0(i64 96, ptr nonnull %4) #13, !noalias !43
  store i64 %.sroa.0.0.i.i, ptr %4, align 8, !noalias !43
  %20 = getelementptr inbounds nuw i8, ptr %4, i64 8
  store ptr %2, ptr %20, align 8, !noalias !43
  %21 = getelementptr inbounds nuw i8, ptr %4, i64 16
  store i64 2, ptr %21, align 8, !noalias !43
  %22 = getelementptr inbounds nuw i8, ptr %4, i64 24
  store ptr @.str, ptr %22, align 8, !noalias !43
  %23 = getelementptr inbounds nuw i8, ptr %4, i64 32
  store i64 %.sroa.0.0.i.i33, ptr %23, align 8, !noalias !43
  %24 = getelementptr inbounds nuw i8, ptr %4, i64 40
  store ptr %0, ptr %24, align 8, !noalias !43
  %25 = getelementptr inbounds nuw i8, ptr %4, i64 48
  store i64 5, ptr %25, align 8, !noalias !43
  %26 = getelementptr inbounds nuw i8, ptr %4, i64 56
  store ptr @.str.1, ptr %26, align 8, !noalias !43
  %27 = getelementptr inbounds nuw i8, ptr %4, i64 64
  store i64 %.sroa.0.0.i.i37, ptr %27, align 8, !noalias !43
  %28 = getelementptr inbounds nuw i8, ptr %4, i64 72
  store ptr %1, ptr %28, align 8, !noalias !43
  %29 = getelementptr inbounds nuw i8, ptr %4, i64 80
  store i64 1, ptr %29, align 8, !noalias !43
  %30 = getelementptr inbounds nuw i8, ptr %4, i64 88
  store ptr @.str.2, ptr %30, align 8, !noalias !43
  invoke void @_ZN4absl16strings_internal9CatPiecesB5cxx11ESt16initializer_listISt17basic_string_viewIcSt11char_traitsIcEEE(ptr dead_on_unwind nonnull writable sret(%"class.std::__cxx11::basic_string") align 8 %11, ptr nonnull %4, i64 6)
          to label %_ZN4absl10IgnoreLeakINSt7__cxx1112basic_stringIcSt11char_traitsIcESaIcEEEEEPT_S8_.exit unwind label %.thread55

.thread55:                                        ; preds = %_ZN4absl8AlphaNumC2EPKc.exit38
  %31 = landingpad { ptr, i32 }
          cleanup
  call void @_ZdlPvm(ptr noundef nonnull %11, i64 noundef 32) #14
  resume { ptr, i32 } %31

_ZN4absl10IgnoreLeakINSt7__cxx1112basic_stringIcSt11char_traitsIcESaIcEEEEEPT_S8_.exit: ; preds = %_ZN4absl8AlphaNumC2EPKc.exit38
  call void @llvm.lifetime.end.p0(i64 96, ptr nonnull %4) #13, !noalias !43
  call void @_ZN4absl12DoIgnoreLeakEPKv(ptr noundef nonnull %11)
  %32 = load ptr, ptr %11, align 8, !tbaa !20
  br label %.critedge30

.critedge30:                                      ; preds = %6, %9, %_ZN4absl10IgnoreLeakINSt7__cxx1112basic_stringIcSt11char_traitsIcESaIcEEEEEPT_S8_.exit
  %.022 = phi ptr [ %32, %_ZN4absl10IgnoreLeakINSt7__cxx1112basic_stringIcSt11char_traitsIcESaIcEEEEEPT_S8_.exit ], [ null, %9 ], [ null, %6 ]
  ret ptr %.022
}